target datalayout = "e-m:e-p270:32:32-p271:32:32-p272:64:64-i64:64-i128:128-f80:128-n8:16:32:64-S128"
target triple = "x86_64-pc-linux-gnu"

%"class.Imath_3_2::Vec2" = type { float, float }
%"class.Imath_3_2::Box" = type { %"class.Imath_3_2::Vec2.0", %"class.Imath_3_2::Vec2.0" }
%"class.Imath_3_2::Vec2.0" = type { i32, i32 }

; Function Attrs: inlinehint mustprogress nounwind uwtable
define linkonce_odr hidden void @_ZN9Imath_3_24Vec2IfEC2Eff(ptr noundef nonnull align 4 dereferenceable(8) %0, float noundef %1, float noundef %2) unnamed_addr #6 comdat align 2 {
  %4 = alloca ptr, align 8
  %5 = alloca float, align 4
  %6 = alloca float, align 4
  store ptr %0, ptr %4, align 8, !tbaa !16
  store float %1, ptr %5, align 4, !tbaa !12
  store float %2, ptr %6, align 4, !tbaa !12
  %7 = load ptr, ptr %4, align 8
  %8 = getelementptr inbounds nuw %"class.Imath_3_2::Vec2", ptr %7, i32 0, i32 0
  %9 = load float, ptr %5, align 4, !tbaa !12
  store float %9, ptr %8, align 4, !tbaa !18
  %10 = getelementptr inbounds nuw %"class.Imath_3_2::Vec2", ptr %7, i32 0, i32 1
  %11 = load float, ptr %6, align 4, !tbaa !12
  store float %11, ptr %10, align 4, !tbaa !20
  ret void
}

; Function Attrs: mustprogress nounwind uwtable
define void @_ZN7Imf_3_410LatLongMap13pixelPositionERKN9Imath_3_23BoxINS1_4Vec2IiEEEERKNS3_IfEE(ptr dead_on_unwind noalias writable sret(%"class.Imath_3_2::Vec2") align 4 %0, ptr noundef nonnull align 4 dereferenceable(16) %1, ptr noundef nonnull align 4 dereferenceable(8) %2) #8 {
  %4 = alloca ptr, align 8
  %5 = alloca ptr, align 8
  %6 = alloca ptr, align 8
  %7 = alloca float, align 4
  %8 = alloca float, align 4
  store ptr %0, ptr %4, align 8
  store ptr %1, ptr %5, align 8, !tbaa !21
  store ptr %2, ptr %6, align 8, !tbaa !16
  call void @llvm.lifetime.start.p0(i64 4, ptr %7) #3
  %9 = load ptr, ptr %6, align 8, !tbaa !16
  %10 = getelementptr inbounds nuw %"class.Imath_3_2::Vec2", ptr %9, i32 0, i32 1
  %11 = load float, ptr %10, align 4, !tbaa !20
  %12 = fdiv float %11, 0xC01921FB60000000
  %13 = fadd float %12, 5.000000e-01
  store float %13, ptr %7, align 4, !tbaa !12
  call void @llvm.lifetime.start.p0(i64 4, ptr %8) #3
  %14 = load ptr, ptr %6, align 8, !tbaa !16
  %15 = getelementptr inbounds nuw %"class.Imath_3_2::Vec2", ptr %14, i32 0, i32 0
  %16 = load float, ptr %15, align 4, !tbaa !18
  %17 = fdiv float %16, 0xC00921FB60000000
  %18 = fadd float %17, 5.000000e-01
  store float %18, ptr %8, align 4, !tbaa !12
  %19 = load float, ptr %7, align 4, !tbaa !12
  %20 = load ptr, ptr %5, align 8, !tbaa !21
  %21 = getelementptr inbounds nuw %"class.Imath_3_2::Box", ptr %20, i32 0, i32 1
  %22 = getelementptr inbounds nuw %"class.Imath_3_2::Vec2.0", ptr %21, i32 0, i32 0
  %23 = load i32, ptr %22, align 4, !tbaa !27
  %24 = load ptr, ptr %5, align 8, !tbaa !21
  %25 = getelementptr inbounds nuw %"class.Imath_3_2::Box", ptr %24, i32 0, i32 0
  %26 = getelementptr inbounds nuw %"class.Imath_3_2::Vec2.0", ptr %25, i32 0, i32 0
  %27 = load i32, ptr %26, align 4, !tbaa !28
  %28 = sub nsw i32 %23, %27
  %29 = sitofp i32 %28 to float
  %30 = load ptr, ptr %5, align 8, !tbaa !21
  %31 = getelementptr inbounds nuw %"class.Imath_3_2::Box", ptr %30, i32 0, i32 0
  %32 = getelementptr inbounds nuw %"class.Imath_3_2::Vec2.0", ptr %31, i32 0, i32 0
  %33 = load i32, ptr %32, align 4, !tbaa !28
  %34 = sitofp i32 %33 to float
  %35 = call float @llvm.fmuladd.f32(float %19, float %29, float %34)
  %36 = load float, ptr %8, align 4, !tbaa !12
  %37 = load ptr, ptr %5, align 8, !tbaa !21
  %38 = getelementptr inbounds nuw %"class.Imath_3_2::Box", ptr %37, i32 0, i32 1
  %39 = getelementptr inbounds nuw %"class.Imath_3_2::Vec2.0", ptr %38, i32 0, i32 1
  %40 = load i32, ptr %39, align 4, !tbaa !23
  %41 = load ptr, ptr %5, align 8, !tbaa !21
  %42 = getelementptr inbounds nuw %"class.Imath_3_2::Box", ptr %41, i32 0, i32 0
  %43 = getelementptr inbounds nuw %"class.Imath_3_2::Vec2.0", ptr %42, i32 0, i32 1
  %44 = load i32, ptr %43, align 4, !tbaa !26
  %45 = sub nsw i32 %40, %44
  %46 = sitofp i32 %45 to float
  %47 = load ptr, ptr %5, align 8, !tbaa !21
  %48 = getelementptr inbounds nuw %"class.Imath_3_2::Box", ptr %47, i32 0, i32 0
  %49 = getelementptr inbounds nuw %"class.Imath_3_2::Vec2.0", ptr %48, i32 0, i32 1
  %50 = load i32, ptr %49, align 4, !tbaa !26
  %51 = sitofp i32 %50 to float
  %52 = call float @llvm.fmuladd.f32(float %36, float %46, float %51)
  call void @_ZN9Imath_3_24Vec2IfEC2Eff(ptr noundef nonnull align 4 dereferenceable(8) %0, float noundef %35, float noundef %52) #3
  call void @llvm.lifetime.end.p0(i64 4, ptr %8) #3
  call void @llvm.lifetime.end.p0(i64 4, ptr %7) #3
  ret void
}