; Function Attrs: mustprogress nofree norecurse nosync nounwind willreturn memory(argmem: readwrite) uwtable
define void @_ZN7Imf_3_410LatLongMap13pixelPositionERKN9Imath_3_23BoxINS1_4Vec2IiEEEERKNS3_IfEE(ptr dead_on_unwind noalias writable writeonly sret(%"class.Imath_3_2::Vec2") align 4 captures(none) initializes((0, 8)) %0, ptr noundef nonnull readonly align 4 captures(none) dereferenceable(16) %1, ptr noundef nonnull readonly align 4 captures(none) dereferenceable(8) %2) local_unnamed_addr #5 {
  %4 = getelementptr inbounds nuw i8, ptr %2, i64 4
  %5 = load float, ptr %4, align 4, !tbaa !15
  %6 = fdiv float %5, 0x401921FB60000000
  %7 = fsub float 5.000000e-01, %6
  %8 = load float, ptr %2, align 4, !tbaa !13
  %9 = fdiv float %8, 0x400921FB60000000
  %10 = fsub float 5.000000e-01, %9
  %11 = getelementptr inbounds nuw i8, ptr %1, i64 8
  %12 = load i32, ptr %11, align 4, !tbaa !20
  %13 = load i32, ptr %1, align 4, !tbaa !21
  %14 = sub nsw i32 %12, %13
  %15 = sitofp i32 %14 to float
  %16 = sitofp i32 %13 to float
  %17 = tail call float @llvm.fmuladd.f32(float %7, float %15, float %16)
  %18 = getelementptr inbounds nuw i8, ptr %1, i64 12
  %19 = load i32, ptr %18, align 4, !tbaa !16
  %20 = getelementptr inbounds nuw i8, ptr %1, i64 4
  %21 = load i32, ptr %20, align 4, !tbaa !19
  %22 = sub nsw i32 %19, %21
  %23 = sitofp i32 %22 to float
  %24 = sitofp i32 %21 to float
  %25 = tail call float @llvm.fmuladd.f32(float %10, float %23, float %24)
  store float %17, ptr %0, align 4, !tbaa !13
  %26 = getelementptr inbounds nuw i8, ptr %0, i64 4
  store float %25, ptr %26, align 4, !tbaa !15
  ret void
}